target datalayout = "e-m:e-p270:32:32-p271:32:32-p272:64:64-i64:64-i128:128-f80:128-n8:16:32:64-S128"
target triple = "x86_64-pc-linux-gnu"

%"struct.g2o::HyperGraph::HyperGraphElement" = type { ptr }
%"class.std::vector" = type { %"struct.std::_Vector_base" }
%"struct.std::_Vector_base" = type { %"struct.std::_Vector_base<g2o::HyperGraph::Vertex *, std::allocator<g2o::HyperGraph::Vertex *>>::_Vector_impl" }
%"struct.std::_Vector_base<g2o::HyperGraph::Vertex *, std::allocator<g2o::HyperGraph::Vertex *>>::_Vector_impl" = type { %"struct.std::_Vector_base<g2o::HyperGraph::Vertex *, std::allocator<g2o::HyperGraph::Vertex *>>::_Vector_impl_data" }
%"struct.std::_Vector_base<g2o::HyperGraph::Vertex *, std::allocator<g2o::HyperGraph::Vertex *>>::_Vector_impl_data" = type { ptr, ptr, ptr }
%"class.g2o::HyperGraph::Edge" = type <{ %"struct.g2o::HyperGraph::HyperGraphElement", %"class.std::vector", i32, [4 x i8] }>
%"class.g2o::HyperGraph::Vertex" = type { %"struct.g2o::HyperGraph::HyperGraphElement", i32, %"class.std::set" }
%"class.std::set" = type { %"class.std::_Rb_tree" }
%"class.std::_Rb_tree" = type { %"struct.std::_Rb_tree<g2o::HyperGraph::Edge *, g2o::HyperGraph::Edge *, std::_Identity<g2o::HyperGraph::Edge *>, std::less<g2o::HyperGraph::Edge *>>::_Rb_tree_impl" }
%"struct.std::_Rb_tree<g2o::HyperGraph::Edge *, g2o::HyperGraph::Edge *, std::_Identity<g2o::HyperGraph::Edge *>, std::less<g2o::HyperGraph::Edge *>>::_Rb_tree_impl" = type { [8 x i8], %"struct.std::_Rb_tree_header" }
%"struct.std::_Rb_tree_header" = type { %"struct.std::_Rb_tree_node_base", i64 }
%"struct.std::_Rb_tree_node_base" = type { i32, ptr, ptr, ptr }
%"struct.std::_Rb_tree_const_iterator" = type { ptr }
%"class.std::set.156" = type { %"class.std::_Rb_tree.157" }
%"class.std::_Rb_tree.157" = type { %"struct.std::_Rb_tree<g2o::HyperGraph::Vertex *, g2o::HyperGraph::Vertex *, std::_Identity<g2o::HyperGraph::Vertex *>, std::less<g2o::HyperGraph::Vertex *>>::_Rb_tree_impl" }
%"struct.std::_Rb_tree<g2o::HyperGraph::Vertex *, g2o::HyperGraph::Vertex *, std::_Identity<g2o::HyperGraph::Vertex *>, std::less<g2o::HyperGraph::Vertex *>>::_Rb_tree_impl" = type { [8 x i8], %"struct.std::_Rb_tree_header" }
%"struct.std::_Rb_tree_node" = type { %"struct.std::_Rb_tree_node_base", %"struct.__gnu_cxx::__aligned_membuf" }
%"struct.__gnu_cxx::__aligned_membuf" = type { [8 x i8] }

; Function Attrs: mustprogress nounwind uwtable
define linkonce_odr noundef ptr @_ZNK9__gnu_cxx16__aligned_membufIPN3g2o10HyperGraph6VertexEE7_M_addrEv(ptr noundef nonnull align 8 dereferenceable(8) %0) #4 comdat align 2 {
  %2 = alloca ptr, align 8
  store ptr %0, ptr %2, align 8, !tbaa !1368
  %3 = load ptr, ptr %2, align 8
  %4 = getelementptr inbounds nuw %"struct.__gnu_cxx::__aligned_membuf", ptr %3, i32 0, i32 0
  ret ptr %4
}

; Function Attrs: mustprogress nounwind uwtable
define linkonce_odr noundef ptr @_ZNK9__gnu_cxx16__aligned_membufIPN3g2o10HyperGraph6VertexEE6_M_ptrEv(ptr noundef nonnull align 8 dereferenceable(8) %0) #4 comdat align 2 {
  %2 = alloca ptr, align 8
  store ptr %0, ptr %2, align 8, !tbaa !1368
  %3 = load ptr, ptr %2, align 8
  %4 = call noundef ptr @_ZNK9__gnu_cxx16__aligned_membufIPN3g2o10HyperGraph6VertexEE7_M_addrEv(ptr noundef nonnull align 8 dereferenceable(8) %3) #3
  ret ptr %4
}

; Function Attrs: mustprogress nounwind uwtable
define linkonce_odr void @_ZNSt23_Rb_tree_const_iteratorIPN3g2o10HyperGraph6VertexEEC2EPKSt18_Rb_tree_node_base(ptr noundef nonnull align 8 dereferenceable(8) %0, ptr noundef %1) unnamed_addr #4 comdat align 2 {
  %3 = alloca ptr, align 8
  %4 = alloca ptr, align 8
  store ptr %0, ptr %3, align 8, !tbaa !168
  store ptr %1, ptr %4, align 8, !tbaa !1365
  %5 = load ptr, ptr %3, align 8
  %6 = getelementptr inbounds nuw %"struct.std::_Rb_tree_const_iterator", ptr %5, i32 0, i32 0
  %7 = load ptr, ptr %4, align 8, !tbaa !1365
  store ptr %7, ptr %6, align 8, !tbaa !170
  ret void
}

; Function Attrs: noinline noreturn nounwind uwtable
define linkonce_odr hidden void @__clang_call_terminate(ptr noundef %0) #10 comdat {
  %2 = call ptr @__cxa_begin_catch(ptr %0) #3
  call void @_ZSt9terminatev() #31
  unreachable
}

; Function Attrs: mustprogress nounwind uwtable
define linkonce_odr noundef ptr @_ZNKSt13_Rb_tree_nodeIPN3g2o10HyperGraph6VertexEE9_M_valptrEv(ptr noundef nonnull align 8 dereferenceable(40) %0) #4 comdat align 2 {
  %2 = alloca ptr, align 8
  store ptr %0, ptr %2, align 8, !tbaa !1366
  %3 = load ptr, ptr %2, align 8
  %4 = getelementptr inbounds nuw %"struct.std::_Rb_tree_node", ptr %3, i32 0, i32 1
  %5 = call noundef ptr @_ZNK9__gnu_cxx16__aligned_membufIPN3g2o10HyperGraph6VertexEE6_M_ptrEv(ptr noundef nonnull align 8 dereferenceable(8) %4) #3
  ret ptr %5
}

; Function Attrs: mustprogress nounwind uwtable
define linkonce_odr ptr @_ZNKSt8_Rb_treeIPN3g2o10HyperGraph6VertexES3_St9_IdentityIS3_ESt4lessIS3_ESaIS3_EE3endEv(ptr noundef nonnull align 8 dereferenceable(48) %0) #4 comdat align 2 {
  %2 = alloca %"struct.std::_Rb_tree_const_iterator", align 8
  %3 = alloca ptr, align 8
  store ptr %0, ptr %3, align 8, !tbaa !1362
  %4 = load ptr, ptr %3, align 8
  %5 = getelementptr inbounds nuw %"class.std::_Rb_tree.157", ptr %4, i32 0, i32 0
  %6 = getelementptr inbounds i8, ptr %5, i64 8
  %7 = getelementptr inbounds nuw %"struct.std::_Rb_tree_header", ptr %6, i32 0, i32 0
  call void @_ZNSt23_Rb_tree_const_iteratorIPN3g2o10HyperGraph6VertexEEC2EPKSt18_Rb_tree_node_base(ptr noundef nonnull align 8 dereferenceable(8) %2, ptr noundef %7) #3
  %8 = getelementptr inbounds nuw %"struct.std::_Rb_tree_const_iterator", ptr %2, i32 0, i32 0
  %9 = load ptr, ptr %8, align 8
  ret ptr %9
}

; Function Attrs: mustprogress nounwind uwtable
define linkonce_odr ptr @_ZNKSt8_Rb_treeIPN3g2o10HyperGraph6VertexES3_St9_IdentityIS3_ESt4lessIS3_ESaIS3_EE5beginEv(ptr noundef nonnull align 8 dereferenceable(48) %0) #4 comdat align 2 {
  %2 = alloca %"struct.std::_Rb_tree_const_iterator", align 8
  %3 = alloca ptr, align 8
  store ptr %0, ptr %3, align 8, !tbaa !1362
  %4 = load ptr, ptr %3, align 8
  %5 = getelementptr inbounds nuw %"class.std::_Rb_tree.157", ptr %4, i32 0, i32 0
  %6 = getelementptr inbounds i8, ptr %5, i64 8
  %7 = getelementptr inbounds nuw %"struct.std::_Rb_tree_header", ptr %6, i32 0, i32 0
  %8 = getelementptr inbounds nuw %"struct.std::_Rb_tree_node_base", ptr %7, i32 0, i32 2
  %9 = load ptr, ptr %8, align 8, !tbaa !1364
  call void @_ZNSt23_Rb_tree_const_iteratorIPN3g2o10HyperGraph6VertexEEC2EPKSt18_Rb_tree_node_base(ptr noundef nonnull align 8 dereferenceable(8) %2, ptr noundef %9) #3
  %10 = getelementptr inbounds nuw %"struct.std::_Rb_tree_const_iterator", ptr %2, i32 0, i32 0
  %11 = load ptr, ptr %10, align 8
  ret ptr %11
}

; Function Attrs: mustprogress nounwind uwtable
define linkonce_odr noundef nonnull align 8 dereferenceable(8) ptr @_ZNSt23_Rb_tree_const_iteratorIPN3g2o10HyperGraph6VertexEEppEv(ptr noundef nonnull align 8 dereferenceable(8) %0) #4 comdat align 2 {
  %2 = alloca ptr, align 8
  store ptr %0, ptr %2, align 8, !tbaa !168
  %3 = load ptr, ptr %2, align 8
  %4 = getelementptr inbounds nuw %"struct.std::_Rb_tree_const_iterator", ptr %3, i32 0, i32 0
  %5 = load ptr, ptr %4, align 8, !tbaa !170
  %6 = call noundef ptr @_ZSt18_Rb_tree_incrementPKSt18_Rb_tree_node_base(ptr noundef %5) #32
  %7 = getelementptr inbounds nuw %"struct.std::_Rb_tree_const_iterator", ptr %3, i32 0, i32 0
  store ptr %6, ptr %7, align 8, !tbaa !170
  ret ptr %3
}

; Function Attrs: mustprogress nounwind uwtable
define linkonce_odr noundef nonnull align 8 dereferenceable(8) ptr @_ZNKSt23_Rb_tree_const_iteratorIPN3g2o10HyperGraph6VertexEEdeEv(ptr noundef nonnull align 8 dereferenceable(8) %0) #4 comdat align 2 personality ptr @__gxx_personality_v0 {
  %2 = alloca ptr, align 8
  store ptr %0, ptr %2, align 8, !tbaa !168
  %3 = load ptr, ptr %2, align 8
  %4 = getelementptr inbounds nuw %"struct.std::_Rb_tree_const_iterator", ptr %3, i32 0, i32 0
  %5 = load ptr, ptr %4, align 8, !tbaa !170
  %6 = invoke noundef ptr @_ZNKSt13_Rb_tree_nodeIPN3g2o10HyperGraph6VertexEE9_M_valptrEv(ptr noundef nonnull align 8 dereferenceable(40) %5)
          to label %7 unwind label %8

7:                                                ; preds = %1
  ret ptr %6

8:                                                ; preds = %1
  %9 = landingpad { ptr, i32 }
          catch ptr null
  %10 = extractvalue { ptr, i32 } %9, 0
  call void @__clang_call_terminate(ptr %10) #31
  unreachable
}

; Function Attrs: mustprogress nounwind uwtable
define linkonce_odr noundef i32 @_ZNK3g2o10HyperGraph6Vertex2idEv(ptr noundef nonnull align 8 dereferenceable(64) %0) #4 comdat align 2 {
  %2 = alloca ptr, align 8
  store ptr %0, ptr %2, align 8, !tbaa !70
  %3 = load ptr, ptr %2, align 8
  %4 = getelementptr inbounds nuw %"class.g2o::HyperGraph::Vertex", ptr %3, i32 0, i32 1
  %5 = load i32, ptr %4, align 8, !tbaa !173
  ret i32 %5
}

; Function Attrs: mustprogress nounwind uwtable
define linkonce_odr noundef nonnull align 8 dereferenceable(8) ptr @_ZNSt6vectorIPN3g2o10HyperGraph6VertexESaIS3_EEixEm(ptr noundef nonnull align 8 dereferenceable(24) %0, i64 noundef %1) #4 comdat align 2 {
  %3 = alloca ptr, align 8
  %4 = alloca i64, align 8
  store ptr %0, ptr %3, align 8, !tbaa !81
  store i64 %1, ptr %4, align 8, !tbaa !83
  %5 = load ptr, ptr %3, align 8
  %6 = getelementptr inbounds nuw %"struct.std::_Vector_base", ptr %5, i32 0, i32 0
  %7 = getelementptr inbounds nuw %"struct.std::_Vector_base<g2o::HyperGraph::Vertex *, std::allocator<g2o::HyperGraph::Vertex *>>::_Vector_impl_data", ptr %6, i32 0, i32 0
  %8 = load ptr, ptr %7, align 8, !tbaa !84
  %9 = load i64, ptr %4, align 8, !tbaa !83
  %10 = getelementptr inbounds nuw ptr, ptr %8, i64 %9
  ret ptr %10
}

; Function Attrs: mustprogress nounwind uwtable
define linkonce_odr noundef zeroext i1 @_ZStneRKSt23_Rb_tree_const_iteratorIPN3g2o10HyperGraph6VertexEES6_(ptr noundef nonnull align 8 dereferenceable(8) %0, ptr noundef nonnull align 8 dereferenceable(8) %1) #4 comdat {
  %3 = alloca ptr, align 8
  %4 = alloca ptr, align 8
  store ptr %0, ptr %3, align 8, !tbaa !168
  store ptr %1, ptr %4, align 8, !tbaa !168
  %5 = load ptr, ptr %3, align 8, !tbaa !168
  %6 = getelementptr inbounds nuw %"struct.std::_Rb_tree_const_iterator", ptr %5, i32 0, i32 0
  %7 = load ptr, ptr %6, align 8, !tbaa !170
  %8 = load ptr, ptr %4, align 8, !tbaa !168
  %9 = getelementptr inbounds nuw %"struct.std::_Rb_tree_const_iterator", ptr %8, i32 0, i32 0
  %10 = load ptr, ptr %9, align 8, !tbaa !170
  %11 = icmp ne ptr %7, %10
  ret i1 %11
}

; Function Attrs: mustprogress nounwind uwtable
define linkonce_odr ptr @_ZNKSt3setIPN3g2o10HyperGraph6VertexESt4lessIS3_ESaIS3_EE3endEv(ptr noundef nonnull align 8 dereferenceable(48) %0) #4 comdat align 2 {
  %2 = alloca %"struct.std::_Rb_tree_const_iterator", align 8
  %3 = alloca ptr, align 8
  store ptr %0, ptr %3, align 8, !tbaa !149
  %4 = load ptr, ptr %3, align 8
  %5 = getelementptr inbounds nuw %"class.std::set.156", ptr %4, i32 0, i32 0
  %6 = call ptr @_ZNKSt8_Rb_treeIPN3g2o10HyperGraph6VertexES3_St9_IdentityIS3_ESt4lessIS3_ESaIS3_EE3endEv(ptr noundef nonnull align 8 dereferenceable(48) %5) #3
  %7 = getelementptr inbounds nuw %"struct.std::_Rb_tree_const_iterator", ptr %2, i32 0, i32 0
  store ptr %6, ptr %7, align 8
  %8 = getelementptr inbounds nuw %"struct.std::_Rb_tree_const_iterator", ptr %2, i32 0, i32 0
  %9 = load ptr, ptr %8, align 8
  ret ptr %9
}

; Function Attrs: mustprogress nounwind uwtable
define linkonce_odr ptr @_ZNKSt3setIPN3g2o10HyperGraph6VertexESt4lessIS3_ESaIS3_EE5beginEv(ptr noundef nonnull align 8 dereferenceable(48) %0) #4 comdat align 2 {
  %2 = alloca %"struct.std::_Rb_tree_const_iterator", align 8
  %3 = alloca ptr, align 8
  store ptr %0, ptr %3, align 8, !tbaa !149
  %4 = load ptr, ptr %3, align 8
  %5 = getelementptr inbounds nuw %"class.std::set.156", ptr %4, i32 0, i32 0
  %6 = call ptr @_ZNKSt8_Rb_treeIPN3g2o10HyperGraph6VertexES3_St9_IdentityIS3_ESt4lessIS3_ESaIS3_EE5beginEv(ptr noundef nonnull align 8 dereferenceable(48) %5) #3
  %7 = getelementptr inbounds nuw %"struct.std::_Rb_tree_const_iterator", ptr %2, i32 0, i32 0
  store ptr %6, ptr %7, align 8
  %8 = getelementptr inbounds nuw %"struct.std::_Rb_tree_const_iterator", ptr %2, i32 0, i32 0
  %9 = load ptr, ptr %8, align 8
  ret ptr %9
}

; Function Attrs: mustprogress uwtable
define noundef double @_ZN3g2o16EdgeSE3LotsOfXYZ23initialEstimatePossibleERKSt3setIPNS_10HyperGraph6VertexESt4lessIS4_ESaIS4_EEPNS_16OptimizableGraph6VertexE(ptr noundef nonnull align 8 dereferenceable(284) %0, ptr noundef nonnull align 8 dereferenceable(48) %1, ptr noundef %2) unnamed_addr #6 align 2 {
  %4 = alloca double, align 8
  %5 = alloca ptr, align 8
  %6 = alloca ptr, align 8
  %7 = alloca ptr, align 8
  %8 = alloca %"struct.std::_Rb_tree_const_iterator", align 8
  %9 = alloca %"struct.std::_Rb_tree_const_iterator", align 8
  %10 = alloca i32, align 4
  store ptr %0, ptr %5, align 8, !tbaa !14
  store ptr %1, ptr %6, align 8, !tbaa !149
  store ptr %2, ptr %7, align 8, !tbaa !151
  %11 = load ptr, ptr %5, align 8
  call void @llvm.lifetime.start.p0(i64 8, ptr %8) #3
  %12 = load ptr, ptr %6, align 8, !tbaa !149
  %13 = call ptr @_ZNKSt3setIPN3g2o10HyperGraph6VertexESt4lessIS3_ESaIS3_EE5beginEv(ptr noundef nonnull align 8 dereferenceable(48) %12) #3
  %14 = getelementptr inbounds nuw %"struct.std::_Rb_tree_const_iterator", ptr %8, i32 0, i32 0
  store ptr %13, ptr %14, align 8
  br label %15

15:                                               ; preds = %32, %3
  call void @llvm.lifetime.start.p0(i64 8, ptr %9) #3
  %16 = load ptr, ptr %6, align 8, !tbaa !149
  %17 = call ptr @_ZNKSt3setIPN3g2o10HyperGraph6VertexESt4lessIS3_ESaIS3_EE3endEv(ptr noundef nonnull align 8 dereferenceable(48) %16) #3
  %18 = getelementptr inbounds nuw %"struct.std::_Rb_tree_const_iterator", ptr %9, i32 0, i32 0
  store ptr %17, ptr %18, align 8
  %19 = call noundef zeroext i1 @_ZStneRKSt23_Rb_tree_const_iteratorIPN3g2o10HyperGraph6VertexEES6_(ptr noundef nonnull align 8 dereferenceable(8) %8, ptr noundef nonnull align 8 dereferenceable(8) %9) #3
  call void @llvm.lifetime.end.p0(i64 8, ptr %9) #3
  br i1 %19, label %21, label %20

20:                                               ; preds = %15
  store i32 2, ptr %10, align 4
  br label %34

21:                                               ; preds = %15
  %22 = getelementptr inbounds nuw %"class.g2o::HyperGraph::Edge", ptr %11, i32 0, i32 1
  %23 = call noundef nonnull align 8 dereferenceable(8) ptr @_ZNSt6vectorIPN3g2o10HyperGraph6VertexESaIS3_EEixEm(ptr noundef nonnull align 8 dereferenceable(24) %22, i64 noundef 0) #3
  %24 = load ptr, ptr %23, align 8, !tbaa !70
  %25 = call noundef i32 @_ZNK3g2o10HyperGraph6Vertex2idEv(ptr noundef nonnull align 8 dereferenceable(64) %24)
  %26 = call noundef nonnull align 8 dereferenceable(8) ptr @_ZNKSt23_Rb_tree_const_iteratorIPN3g2o10HyperGraph6VertexEEdeEv(ptr noundef nonnull align 8 dereferenceable(8) %8) #3
  %27 = load ptr, ptr %26, align 8, !tbaa !70
  %28 = call noundef i32 @_ZNK3g2o10HyperGraph6Vertex2idEv(ptr noundef nonnull align 8 dereferenceable(64) %27)
  %29 = icmp eq i32 %25, %28
  br i1 %29, label %30, label %31

30:                                               ; preds = %21
  store double 1.000000e+00, ptr %4, align 8
  store i32 1, ptr %10, align 4
  br label %34

31:                                               ; preds = %21
  br label %32

32:                                               ; preds = %31
  %33 = call noundef nonnull align 8 dereferenceable(8) ptr @_ZNSt23_Rb_tree_const_iteratorIPN3g2o10HyperGraph6VertexEEppEv(ptr noundef nonnull align 8 dereferenceable(8) %8) #3
  br label %15, !llvm.loop !193

34:                                               ; preds = %30, %20
  call void @llvm.lifetime.end.p0(i64 8, ptr %8) #3
  %35 = load i32, ptr %10, align 4
  switch i32 %35, label %39 [
    i32 2, label %36
    i32 1, label %37
  ]

36:                                               ; preds = %34
  store double -1.000000e+00, ptr %4, align 8
  br label %37

37:                                               ; preds = %36, %34
  %38 = load double, ptr %4, align 8
  ret double %38

39:                                               ; preds = %34
  unreachable
}